#include <math.h>
#include <stdio.h>
#include <stdlib.h>
#include <string.h>

int reverse(int num)
{
	int i,k,l,m,ans;
	if (num<0) 
	{
		m=-1;
		num=0-num;
	}
	else m=1;
	k=0;
    while (num!=0)
	{
		k=k*10+num%10;
		num=(num-(num%10))/10;
	}
	ans=k*m;
	return ans;
}

int main()
{
	int r,t;
	for (r=0;r<6;r++)
	{
		scanf("%d",&t);
		printf("%d\n",reverse(t));
	}
}