; ModuleID = '44/1278.c'
source_filename = "44/1278.c"
target datalayout = "e-m:e-p270:32:32-p271:32:32-p272:64:64-i64:64-f80:128-n8:16:32:64-S128"
target triple = "x86_64-pc-linux-gnu"

@.str = private unnamed_addr constant [3 x i8] c"%d\00", align 1
@.str.1 = private unnamed_addr constant [4 x i8] c"%d\0A\00", align 1

; Function Attrs: noinline nounwind uwtable
define dso_local i32 @reverse(i32 %0) #0 {
  %2 = alloca i32, align 4
  %3 = alloca i32, align 4
  %4 = alloca i32, align 4
  %5 = alloca i32, align 4
  %6 = alloca i32, align 4
  %7 = alloca i32, align 4
  store i32 %0, i32* %2, align 4
  %8 = load i32, i32* %2, align 4
  %9 = icmp slt i32 %8, 0
  br i1 %9, label %10, label %13

10:                                               ; preds = %1
  store i32 -1, i32* %6, align 4
  %11 = load i32, i32* %2, align 4
  %12 = sub nsw i32 0, %11
  store i32 %12, i32* %2, align 4
  br label %14

13:                                               ; preds = %1
  store i32 1, i32* %6, align 4
  br label %14

14:                                               ; preds = %13, %10
  store i32 0, i32* %4, align 4
  br label %15

15:                                               ; preds = %18, %14
  %16 = load i32, i32* %2, align 4
  %17 = icmp ne i32 %16, 0
  br i1 %17, label %18, label %29

18:                                               ; preds = %15
  %19 = load i32, i32* %4, align 4
  %20 = mul nsw i32 %19, 10
  %21 = load i32, i32* %2, align 4
  %22 = srem i32 %21, 10
  %23 = add nsw i32 %20, %22
  store i32 %23, i32* %4, align 4
  %24 = load i32, i32* %2, align 4
  %25 = load i32, i32* %2, align 4
  %26 = srem i32 %25, 10
  %27 = sub nsw i32 %24, %26
  %28 = sdiv i32 %27, 10
  store i32 %28, i32* %2, align 4
  br label %15

29:                                               ; preds = %15
  %30 = load i32, i32* %4, align 4
  %31 = load i32, i32* %6, align 4
  %32 = mul nsw i32 %30, %31
  store i32 %32, i32* %7, align 4
  %33 = load i32, i32* %7, align 4
  ret i32 %33
}

; Function Attrs: noinline nounwind uwtable
define dso_local i32 @main() #0 {
  %1 = alloca i32, align 4
  %2 = alloca i32, align 4
  %3 = alloca i32, align 4
  store i32 0, i32* %1, align 4
  store i32 0, i32* %2, align 4
  br label %4

4:                                                ; preds = %12, %0
  %5 = load i32, i32* %2, align 4
  %6 = icmp slt i32 %5, 6
  br i1 %6, label %7, label %15

7:                                                ; preds = %4
  %8 = call i32 (i8*, ...) @__isoc99_scanf(i8* getelementptr inbounds ([3 x i8], [3 x i8]* @.str, i64 0, i64 0), i32* %3)
  %9 = load i32, i32* %3, align 4
  %10 = call i32 @reverse(i32 %9)
  %11 = call i32 (i8*, ...) @printf(i8* getelementptr inbounds ([4 x i8], [4 x i8]* @.str.1, i64 0, i64 0), i32 %10)
  br label %12

12:                                               ; preds = %7
  %13 = load i32, i32* %2, align 4
  %14 = add nsw i32 %13, 1
  store i32 %14, i32* %2, align 4
  br label %4

15:                                               ; preds = %4
  %16 = load i32, i32* %1, align 4
  ret i32 %16
}

declare dso_local i32 @__isoc99_scanf(i8*, ...) #1

declare dso_local i32 @printf(i8*, ...) #1


!llvm.module.flags = !{!0}
!llvm.ident = !{!1}

!0 = !{i32 1, !"wchar_size", i32 4}
!1 = !{!"clang version 10.0.0-4ubuntu1 "}
